; Function Attrs: mustprogress uwtable
define dso_local void @_ZN4absl32NotificationTest_SanityTest_Test8TestBodyEv(ptr nonnull readnone align 8 captures(none) %0) unnamed_addr #4 align 2 personality ptr @__gxx_personality_v0 {
  %2 = alloca %"class.absl::Notification", align 8
  %3 = alloca %"class.absl::Notification", align 8
  call void @llvm.lifetime.start.p0(i64 16, ptr nonnull %2) #23
  store i64 0, ptr %2, align 8, !tbaa !20
  %4 = getelementptr inbounds nuw i8, ptr %2, i64 8
  store i8 0, ptr %4, align 8, !tbaa !22
  call void @llvm.lifetime.start.p0(i64 16, ptr nonnull %3) #23
  store i64 0, ptr %3, align 8, !tbaa !20
  %5 = getelementptr inbounds nuw i8, ptr %3, i64 8
  store i8 0, ptr %5, align 8, !tbaa !22
  invoke fastcc void @_ZN4abslL10BasicTestsEbPNS_12NotificationE(i1 noundef zeroext false, ptr noundef %2)
          to label %6 unwind label %8

6:                                                ; preds = %1
  invoke fastcc void @_ZN4abslL10BasicTestsEbPNS_12NotificationE(i1 noundef zeroext true, ptr noundef %3)
          to label %7 unwind label %8

7:                                                ; preds = %6
  call void @_ZN4absl12NotificationD1Ev(ptr noundef nonnull align 8 dereferenceable(9) %3) #23
  call void @llvm.lifetime.end.p0(i64 16, ptr nonnull %3) #23
  call void @_ZN4absl12NotificationD1Ev(ptr noundef nonnull align 8 dereferenceable(9) %2) #23
  call void @llvm.lifetime.end.p0(i64 16, ptr nonnull %2) #23
  ret void

8:                                                ; preds = %6, %1
  %9 = landingpad { ptr, i32 }
          cleanup
  call void @_ZN4absl12NotificationD1Ev(ptr noundef nonnull align 8 dereferenceable(9) %3) #23
  call void @llvm.lifetime.end.p0(i64 16, ptr nonnull %3) #23
  call void @_ZN4absl12NotificationD1Ev(ptr noundef nonnull align 8 dereferenceable(9) %2) #23
  call void @llvm.lifetime.end.p0(i64 16, ptr nonnull %2) #23
  resume { ptr, i32 } %9
}